target datalayout = "e-m:e-p270:32:32-p271:32:32-p272:64:64-i64:64-i128:128-f80:128-n8:16:32:64-S128"
target triple = "x86_64-pc-linux-gnu"

%struct.RString = type { %struct.RBasic, i64, %union.anon }
%struct.RBasic = type { i64, i64 }
%union.anon = type { %struct.anon }
%struct.anon = type { ptr, %union.anon.0 }
%union.anon.0 = type { i64 }
%struct.anon.1 = type { [1 x i8] }
%struct.rb_printf_sfile = type { ptr, i64, i16, i16, %struct.rb_printf_sbuf, ptr, ptr }
%struct.rb_printf_sbuf = type { ptr, i64 }
%struct.rb_printf_buffer_extra = type { %struct.rb_printf_sfile, i64 }

@rb_eRuntimeError = external global i64, align 8
@.str.47 = private unnamed_addr constant [22 x i8] c"rb_vsprintf reentered\00", align 1
@.str.49 = private unnamed_addr constant [4 x i8] c"nil\00", align 1
@.str.50 = private unnamed_addr constant [5 x i8] c"true\00", align 1
@.str.51 = private unnamed_addr constant [6 x i8] c"false\00", align 1

; Function Attrs: inlinehint nounwind sspstrong willreturn memory(none) uwtable
define internal zeroext i1 @RB_IMMEDIATE_P(i64 noundef %0) #8 {
  %2 = alloca i64, align 8
  store i64 %0, ptr %2, align 8, !tbaa !14
  %3 = load i64, ptr %2, align 8, !tbaa !14
  %4 = and i64 %3, 7
  %5 = icmp ne i64 %4, 0
  ret i1 %5
}

; Function Attrs: inlinehint nounwind sspstrong willreturn memory(read) uwtable
define internal i64 @RB_FL_TEST_RAW(i64 noundef %0, i64 noundef %1) #5 {
  %3 = alloca i64, align 8
  %4 = alloca i64, align 8
  store i64 %0, ptr %3, align 8, !tbaa !14
  store i64 %1, ptr %4, align 8, !tbaa !14
  %5 = load i64, ptr %3, align 8, !tbaa !14
  %6 = inttoptr i64 %5 to ptr
  %7 = getelementptr inbounds nuw %struct.RBasic, ptr %6, i32 0, i32 0
  %8 = load i64, ptr %7, align 8, !tbaa !91
  %9 = load i64, ptr %4, align 8, !tbaa !14
  %10 = and i64 %8, %9
  ret i64 %10
}

; Function Attrs: inlinehint nounwind sspstrong willreturn memory(read) uwtable
define internal i32 @RB_BUILTIN_TYPE(i64 noundef %0) #5 {
  %2 = alloca i64, align 8
  %3 = alloca i64, align 8
  store i64 %0, ptr %2, align 8, !tbaa !14
  call void @llvm.lifetime.start.p0(i64 8, ptr %3) #26
  %4 = load i64, ptr %2, align 8, !tbaa !14
  %5 = inttoptr i64 %4 to ptr
  %6 = getelementptr inbounds nuw %struct.RBasic, ptr %5, i32 0, i32 0
  %7 = load i64, ptr %6, align 8, !tbaa !91
  %8 = and i64 %7, 31
  store i64 %8, ptr %3, align 8, !tbaa !14
  %9 = load i64, ptr %3, align 8, !tbaa !14
  %10 = trunc i64 %9 to i32
  call void @llvm.lifetime.end.p0(i64 8, ptr %3) #26
  ret i32 %10
}

; Function Attrs: inlinehint nounwind sspstrong willreturn memory(none) uwtable
define internal zeroext i1 @RB_SPECIAL_CONST_P(i64 noundef %0) #8 {
  %2 = alloca i64, align 8
  store i64 %0, ptr %2, align 8, !tbaa !14
  %3 = load i64, ptr %2, align 8, !tbaa !14
  %4 = icmp eq i64 %3, 0
  br i1 %4, label %8, label %5

5:                                                ; preds = %1
  %6 = load i64, ptr %2, align 8, !tbaa !14
  %7 = call zeroext i1 @RB_IMMEDIATE_P(i64 noundef %6) #29
  br label %8

8:                                                ; preds = %5, %1
  %9 = phi i1 [ true, %1 ], [ %7, %5 ]
  ret i1 %9
}

; Function Attrs: inlinehint nounwind sspstrong willreturn memory(read) uwtable
define internal i64 @RSTRING_LEN(i64 noundef %0) #5 {
  %2 = alloca i64, align 8
  store i64 %0, ptr %2, align 8, !tbaa !14
  %3 = load i64, ptr %2, align 8, !tbaa !14
  %4 = inttoptr i64 %3 to ptr
  %5 = getelementptr inbounds nuw %struct.RString, ptr %4, i32 0, i32 1
  %6 = load i64, ptr %5, align 8, !tbaa !49
  ret i64 %6
}

; Function Attrs: inlinehint nounwind sspstrong willreturn memory(read) uwtable
define internal zeroext i1 @RB_FL_ANY_RAW(i64 noundef %0, i64 noundef %1) #5 {
  %3 = alloca i64, align 8
  %4 = alloca i64, align 8
  store i64 %0, ptr %3, align 8, !tbaa !14
  store i64 %1, ptr %4, align 8, !tbaa !14
  %5 = load i64, ptr %3, align 8, !tbaa !14
  %6 = load i64, ptr %4, align 8, !tbaa !14
  %7 = call i64 @RB_FL_TEST_RAW(i64 noundef %5, i64 noundef %6) #27
  %8 = icmp ne i64 %7, 0
  ret i1 %8
}

; Function Attrs: inlinehint nounwind sspstrong willreturn memory(read) uwtable
define internal zeroext i1 @RB_DYNAMIC_SYM_P(i64 noundef %0) #5 {
  %2 = alloca i1, align 1
  %3 = alloca i64, align 8
  store i64 %0, ptr %3, align 8, !tbaa !14
  %4 = load i64, ptr %3, align 8, !tbaa !14
  %5 = call zeroext i1 @RB_SPECIAL_CONST_P(i64 noundef %4) #29
  br i1 %5, label %6, label %7

6:                                                ; preds = %1
  store i1 false, ptr %2, align 1
  br label %11

7:                                                ; preds = %1
  %8 = load i64, ptr %3, align 8, !tbaa !14
  %9 = call i32 @RB_BUILTIN_TYPE(i64 noundef %8) #27
  %10 = icmp eq i32 %9, 20
  store i1 %10, ptr %2, align 1
  br label %11

11:                                               ; preds = %7, %6
  %12 = load i1, ptr %2, align 1
  ret i1 %12
}

; Function Attrs: inlinehint nounwind sspstrong willreturn memory(none) uwtable
define internal zeroext i1 @RB_STATIC_SYM_P(i64 noundef %0) #8 {
  %2 = alloca i64, align 8
  %3 = alloca i64, align 8
  store i64 %0, ptr %2, align 8, !tbaa !14
  call void @llvm.lifetime.start.p0(i64 8, ptr %3) #26
  store i64 255, ptr %3, align 8, !tbaa !14
  %4 = load i64, ptr %2, align 8, !tbaa !14
  %5 = and i64 %4, 255
  %6 = icmp eq i64 %5, 12
  call void @llvm.lifetime.end.p0(i64 8, ptr %3) #26
  ret i1 %6
}

; Function Attrs: inlinehint nounwind sspstrong willreturn memory(read, argmem: readwrite) uwtable
define internal void @rbimpl_rstring_getmem(ptr dead_on_unwind noalias writable sret(%struct.RString) align 8 %0, i64 noundef %1) #15 {
  %3 = alloca i64, align 8
  store i64 %1, ptr %3, align 8, !tbaa !14
  %4 = load i64, ptr %3, align 8, !tbaa !14
  %5 = call zeroext i1 @RB_FL_ANY_RAW(i64 noundef %4, i64 noundef 8192) #27
  br i1 %5, label %6, label %9

6:                                                ; preds = %2
  %7 = load i64, ptr %3, align 8, !tbaa !14
  %8 = inttoptr i64 %7 to ptr
  call void @llvm.memcpy.p0.p0.i64(ptr align 8 %0, ptr align 8 %8, i64 40, i1 false), !tbaa.struct !64
  br label %20

9:                                                ; preds = %2
  %10 = load i64, ptr %3, align 8, !tbaa !14
  %11 = call i64 @RSTRING_LEN(i64 noundef %10) #27
  %12 = getelementptr inbounds nuw %struct.RString, ptr %0, i32 0, i32 1
  store i64 %11, ptr %12, align 8, !tbaa !49
  %13 = load i64, ptr %3, align 8, !tbaa !14
  %14 = inttoptr i64 %13 to ptr
  %15 = getelementptr inbounds nuw %struct.RString, ptr %14, i32 0, i32 2
  %16 = getelementptr inbounds nuw %struct.anon.1, ptr %15, i32 0, i32 0
  %17 = getelementptr inbounds [1 x i8], ptr %16, i64 0, i64 0
  %18 = getelementptr inbounds nuw %struct.RString, ptr %0, i32 0, i32 2
  %19 = getelementptr inbounds nuw %struct.anon, ptr %18, i32 0, i32 0
  store ptr %17, ptr %19, align 8, !tbaa !20
  br label %20

20:                                               ; preds = %9, %6
  ret void
}

; Function Attrs: inlinehint nounwind sspstrong uwtable
define internal i64 @QUOTE(i64 noundef %0) #4 {
  %2 = alloca i64, align 8
  store i64 %0, ptr %2, align 8, !tbaa !14
  %3 = load i64, ptr %2, align 8, !tbaa !14
  %4 = call i64 @rb_str_quote_unprintable(i64 noundef %3)
  ret i64 %4
}

; Function Attrs: inlinehint nounwind sspstrong willreturn memory(read) uwtable
define internal zeroext i1 @RB_SYMBOL_P(i64 noundef %0) #5 {
  %2 = alloca i64, align 8
  store i64 %0, ptr %2, align 8, !tbaa !14
  %3 = load i64, ptr %2, align 8, !tbaa !14
  %4 = call zeroext i1 @RB_STATIC_SYM_P(i64 noundef %3) #29
  br i1 %4, label %8, label %5

5:                                                ; preds = %1
  %6 = load i64, ptr %2, align 8, !tbaa !14
  %7 = call zeroext i1 @RB_DYNAMIC_SYM_P(i64 noundef %6) #27
  br label %8

8:                                                ; preds = %5, %1
  %9 = phi i1 [ true, %1 ], [ %7, %5 ]
  ret i1 %9
}

; Function Attrs: nounwind sspstrong uwtable
define internal ptr @ruby__sfvextra(ptr noundef %0, i64 noundef %1, ptr noundef %2, ptr noundef %3, i32 noundef %4) #0 {
  %6 = alloca ptr, align 8
  %7 = alloca ptr, align 8
  %8 = alloca i64, align 8
  %9 = alloca ptr, align 8
  %10 = alloca ptr, align 8
  %11 = alloca i32, align 4
  %12 = alloca i64, align 8
  %13 = alloca i64, align 8
  %14 = alloca ptr, align 8
  %15 = alloca ptr, align 8
  %16 = alloca i32, align 4
  %17 = alloca %struct.RString, align 8
  %18 = alloca i64, align 8
  store ptr %0, ptr %7, align 8, !tbaa !97
  store i64 %1, ptr %8, align 8, !tbaa !14
  store ptr %2, ptr %9, align 8, !tbaa !53
  store ptr %3, ptr %10, align 8, !tbaa !11
  store i32 %4, ptr %11, align 4, !tbaa !7
  call void @llvm.lifetime.start.p0(i64 8, ptr %12) #26
  call void @llvm.lifetime.start.p0(i64 8, ptr %13) #26
  %19 = load ptr, ptr %7, align 8, !tbaa !97
  %20 = getelementptr inbounds nuw %struct.rb_printf_sfile, ptr %19, i32 0, i32 4
  %21 = getelementptr inbounds nuw %struct.rb_printf_sbuf, ptr %20, i32 0, i32 0
  %22 = load ptr, ptr %21, align 8, !tbaa !72
  %23 = ptrtoint ptr %22 to i64
  store i64 %23, ptr %13, align 8, !tbaa !14
  call void @llvm.lifetime.start.p0(i64 8, ptr %14) #26
  call void @llvm.lifetime.start.p0(i64 8, ptr %15) #26
  %24 = load i64, ptr %8, align 8, !tbaa !14
  %25 = icmp ne i64 %24, 8
  br i1 %25, label %26, label %27

26:                                               ; preds = %5
  store ptr null, ptr %6, align 8
  store i32 1, ptr %16, align 4
  br label %110

27:                                               ; preds = %5
  %28 = load ptr, ptr %9, align 8, !tbaa !53
  %29 = load i64, ptr %28, align 8, !tbaa !14
  store i64 %29, ptr %12, align 8, !tbaa !14
  %30 = load i64, ptr %13, align 8, !tbaa !14
  %31 = inttoptr i64 %30 to ptr
  %32 = getelementptr inbounds nuw %struct.RBasic, ptr %31, i32 0, i32 1
  %33 = load i64, ptr %32, align 8, !tbaa !79
  %34 = icmp ne i64 %33, 0
  br i1 %34, label %35, label %37

35:                                               ; preds = %27
  %36 = load i64, ptr @rb_eRuntimeError, align 8, !tbaa !14
  call void (i64, ptr, ...) @rb_raise(i64 noundef %36, ptr noundef @.str.47) #25
  unreachable

37:                                               ; preds = %27
  %38 = load i32, ptr %11, align 4, !tbaa !7
  %39 = icmp eq i32 %38, 43
  br i1 %39, label %40, label %51

40:                                               ; preds = %37
  %41 = load i64, ptr %12, align 8, !tbaa !14
  switch i64 %41, label %48 [
    i64 4, label %42
    i64 20, label %44
    i64 0, label %46
  ]

42:                                               ; preds = %40
  %43 = load ptr, ptr %10, align 8, !tbaa !11
  store i64 3, ptr %43, align 8, !tbaa !14
  store ptr @.str.49, ptr %6, align 8
  store i32 1, ptr %16, align 4
  br label %110

44:                                               ; preds = %40
  %45 = load ptr, ptr %10, align 8, !tbaa !11
  store i64 4, ptr %45, align 8, !tbaa !14
  store ptr @.str.50, ptr %6, align 8
  store i32 1, ptr %16, align 4
  br label %110

46:                                               ; preds = %40
  %47 = load ptr, ptr %10, align 8, !tbaa !11
  store i64 5, ptr %47, align 8, !tbaa !14
  store ptr @.str.51, ptr %6, align 8
  store i32 1, ptr %16, align 4
  br label %110

48:                                               ; preds = %40
  %49 = load i64, ptr %12, align 8, !tbaa !14
  %50 = call i64 @rb_inspect(i64 noundef %49)
  store i64 %50, ptr %12, align 8, !tbaa !14
  br label %77

51:                                               ; preds = %37
  %52 = load i64, ptr %12, align 8, !tbaa !14
  %53 = call zeroext i1 @RB_SYMBOL_P(i64 noundef %52) #27
  br i1 %53, label %54, label %67

54:                                               ; preds = %51
  %55 = load i64, ptr %12, align 8, !tbaa !14
  %56 = call i64 @rb_sym2str(i64 noundef %55)
  store i64 %56, ptr %12, align 8, !tbaa !14
  %57 = load i32, ptr %11, align 4, !tbaa !7
  %58 = icmp eq i32 %57, 32
  br i1 %58, label %59, label %66

59:                                               ; preds = %54
  %60 = load i64, ptr %12, align 8, !tbaa !14
  %61 = call i32 @rb_str_symname_p(i64 noundef %60)
  %62 = icmp ne i32 %61, 0
  br i1 %62, label %66, label %63

63:                                               ; preds = %59
  %64 = load i64, ptr %12, align 8, !tbaa !14
  %65 = call i64 @rb_str_escape(i64 noundef %64)
  store i64 %65, ptr %12, align 8, !tbaa !14
  br label %66

66:                                               ; preds = %63, %59, %54
  br label %76

67:                                               ; preds = %51
  %68 = load i64, ptr %12, align 8, !tbaa !14
  %69 = call i64 @rb_obj_as_string(i64 noundef %68)
  store i64 %69, ptr %12, align 8, !tbaa !14
  %70 = load i32, ptr %11, align 4, !tbaa !7
  %71 = icmp eq i32 %70, 32
  br i1 %71, label %72, label %75

72:                                               ; preds = %67
  %73 = load i64, ptr %12, align 8, !tbaa !14
  %74 = call i64 @QUOTE(i64 noundef %73)
  store i64 %74, ptr %12, align 8, !tbaa !14
  br label %75

75:                                               ; preds = %72, %67
  br label %76

76:                                               ; preds = %75, %66
  br label %77

77:                                               ; preds = %76, %48
  %78 = load i64, ptr %13, align 8, !tbaa !14
  %79 = load i64, ptr %12, align 8, !tbaa !14
  %80 = call ptr @rb_enc_compatible(i64 noundef %78, i64 noundef %79)
  store ptr %80, ptr %14, align 8, !tbaa !16
  %81 = load ptr, ptr %14, align 8, !tbaa !16
  %82 = icmp ne ptr %81, null
  br i1 %82, label %83, label %87

83:                                               ; preds = %77
  %84 = load i64, ptr %13, align 8, !tbaa !14
  %85 = load ptr, ptr %14, align 8, !tbaa !16
  %86 = call i64 @rb_enc_associate(i64 noundef %84, ptr noundef %85)
  br label %97

87:                                               ; preds = %77
  %88 = load i64, ptr %13, align 8, !tbaa !14
  %89 = call ptr @rb_enc_get(i64 noundef %88)
  store ptr %89, ptr %14, align 8, !tbaa !16
  %90 = load i64, ptr %12, align 8, !tbaa !14
  %91 = load i64, ptr %12, align 8, !tbaa !14
  %92 = call ptr @rb_enc_get(i64 noundef %91)
  %93 = load ptr, ptr %14, align 8, !tbaa !16
  %94 = call i64 @rb_str_conv_enc_opts(i64 noundef %90, ptr noundef %92, ptr noundef %93, i32 noundef 34, i64 noundef 4)
  store i64 %94, ptr %12, align 8, !tbaa !14
  %95 = load i64, ptr %12, align 8, !tbaa !14
  %96 = load ptr, ptr %9, align 8, !tbaa !53
  store volatile i64 %95, ptr %96, align 8, !tbaa !14
  br label %97

97:                                               ; preds = %87, %83
  %98 = call ptr @rb_string_value_cstr(ptr noundef %12)
  call void @llvm.lifetime.start.p0(i64 40, ptr %17) #26
  %99 = load i64, ptr %12, align 8, !tbaa !14
  call void @rbimpl_rstring_getmem(ptr dead_on_unwind writable sret(%struct.RString) align 8 %17, i64 noundef %99) #30
  %100 = getelementptr inbounds nuw %struct.RString, ptr %17, i32 0, i32 2
  %101 = getelementptr inbounds nuw %struct.anon, ptr %100, i32 0, i32 0
  %102 = load ptr, ptr %101, align 8, !tbaa !20
  store ptr %102, ptr %15, align 8, !tbaa !18
  %103 = getelementptr inbounds nuw %struct.RString, ptr %17, i32 0, i32 1
  %104 = load i64, ptr %103, align 8, !tbaa !49
  %105 = load ptr, ptr %10, align 8, !tbaa !11
  store i64 %104, ptr %105, align 8, !tbaa !14
  store i64 %104, ptr %18, align 8, !tbaa !14
  call void @llvm.lifetime.end.p0(i64 40, ptr %17) #26
  %106 = load i64, ptr %12, align 8, !tbaa !14
  %107 = load ptr, ptr %7, align 8, !tbaa !97
  %108 = getelementptr inbounds nuw %struct.rb_printf_buffer_extra, ptr %107, i32 0, i32 1
  store volatile i64 %106, ptr %108, align 8, !tbaa !88
  %109 = load ptr, ptr %15, align 8, !tbaa !18
  store ptr %109, ptr %6, align 8
  store i32 1, ptr %16, align 4
  br label %110

110:                                              ; preds = %97, %46, %44, %42, %26
  call void @llvm.lifetime.end.p0(i64 8, ptr %15) #26
  call void @llvm.lifetime.end.p0(i64 8, ptr %14) #26
  call void @llvm.lifetime.end.p0(i64 8, ptr %13) #26
  call void @llvm.lifetime.end.p0(i64 8, ptr %12) #26
  %111 = load ptr, ptr %6, align 8
  ret ptr %111
}