; Function Attrs: nounwind sspstrong uwtable
define internal ptr @ruby__sfvextra(ptr noundef %0, i64 noundef %1, ptr noundef %2, ptr noundef writeonly captures(none) %3, i32 noundef %4) #0 {
  %6 = alloca i64, align 8
  call void @llvm.lifetime.start.p0(i64 8, ptr nonnull %6) #21
  %7 = getelementptr inbounds nuw i8, ptr %0, i64 24
  %8 = load ptr, ptr %7, align 8, !tbaa !119
  %9 = ptrtoint ptr %8 to i64
  %.not = icmp eq i64 %1, 8
  br i1 %.not, label %10, label %64

10:                                               ; preds = %5
  %11 = load i64, ptr %2, align 8, !tbaa !7
  %12 = getelementptr inbounds nuw i8, ptr %8, i64 8
  %13 = load i64, ptr %12, align 8, !tbaa !127
  %.not22 = icmp eq i64 %13, 0
  br i1 %.not22, label %16, label %14

14:                                               ; preds = %10
  %15 = load i64, ptr @rb_eRuntimeError, align 8, !tbaa !7
  tail call void (i64, ptr, ...) @rb_raise(i64 noundef %15, ptr noundef nonnull @.str.47) #20
  unreachable

16:                                               ; preds = %10
  %17 = icmp eq i32 %4, 43
  br i1 %17, label %18, label %24

18:                                               ; preds = %16
  switch i64 %11, label %22 [
    i64 4, label %19
    i64 20, label %20
    i64 0, label %21
  ]

19:                                               ; preds = %18
  store i64 3, ptr %3, align 8, !tbaa !7
  br label %64

20:                                               ; preds = %18
  store i64 4, ptr %3, align 8, !tbaa !7
  br label %64

21:                                               ; preds = %18
  store i64 5, ptr %3, align 8, !tbaa !7
  br label %64

22:                                               ; preds = %18
  %23 = tail call i64 @rb_inspect(i64 noundef %11) #21
  br label %.sink.split

24:                                               ; preds = %16
  %25 = and i64 %11, 255
  %26 = icmp eq i64 %25, 12
  br i1 %26, label %RB_SYMBOL_P.exit.thread, label %27

27:                                               ; preds = %24
  %28 = icmp eq i64 %11, 0
  %29 = and i64 %11, 7
  %30 = icmp ne i64 %29, 0
  %31 = or i1 %28, %30
  br i1 %31, label %RB_SYMBOL_P.exit.thread25, label %RB_SYMBOL_P.exit

RB_SYMBOL_P.exit:                                 ; preds = %27
  %32 = inttoptr i64 %11 to ptr
  %33 = load i64, ptr %32, align 8, !tbaa !11
  %34 = and i64 %33, 31
  %35 = icmp eq i64 %34, 20
  br i1 %35, label %RB_SYMBOL_P.exit.thread, label %RB_SYMBOL_P.exit.thread25

RB_SYMBOL_P.exit.thread:                          ; preds = %24, %RB_SYMBOL_P.exit
  %36 = tail call i64 @rb_sym2str(i64 noundef %11) #21
  store i64 %36, ptr %6, align 8, !tbaa !7
  %37 = icmp eq i32 %4, 32
  br i1 %37, label %38, label %46

38:                                               ; preds = %RB_SYMBOL_P.exit.thread
  %39 = tail call i32 @rb_str_symname_p(i64 noundef %36) #21
  %.not23 = icmp eq i32 %39, 0
  br i1 %.not23, label %40, label %46

40:                                               ; preds = %38
  %41 = tail call i64 @rb_str_escape(i64 noundef %36) #21
  br label %.sink.split

RB_SYMBOL_P.exit.thread25:                        ; preds = %27, %RB_SYMBOL_P.exit
  %42 = tail call i64 @rb_obj_as_string(i64 noundef %11) #21
  store i64 %42, ptr %6, align 8, !tbaa !7
  %43 = icmp eq i32 %4, 32
  br i1 %43, label %44, label %46

44:                                               ; preds = %RB_SYMBOL_P.exit.thread25
  %45 = tail call i64 @rb_str_quote_unprintable(i64 noundef %42) #21
  br label %.sink.split

.sink.split:                                      ; preds = %22, %44, %40
  %.sink = phi i64 [ %41, %40 ], [ %45, %44 ], [ %23, %22 ]
  store i64 %.sink, ptr %6, align 8, !tbaa !7
  br label %46

46:                                               ; preds = %.sink.split, %38, %RB_SYMBOL_P.exit.thread, %RB_SYMBOL_P.exit.thread25
  %47 = phi i64 [ %36, %38 ], [ %36, %RB_SYMBOL_P.exit.thread ], [ %42, %RB_SYMBOL_P.exit.thread25 ], [ %.sink, %.sink.split ]
  %48 = tail call ptr @rb_enc_compatible(i64 noundef %9, i64 noundef %47) #21
  %.not24 = icmp eq ptr %48, null
  br i1 %.not24, label %51, label %49

49:                                               ; preds = %46
  %50 = tail call i64 @rb_enc_associate(i64 noundef %9, ptr noundef nonnull %48) #21
  br label %55

51:                                               ; preds = %46
  %52 = tail call ptr @rb_enc_get(i64 noundef %9) #21
  %53 = tail call ptr @rb_enc_get(i64 noundef %47) #21
  %54 = tail call i64 @rb_str_conv_enc_opts(i64 noundef %47, ptr noundef %53, ptr noundef %52, i32 noundef 34, i64 noundef 4) #21
  store i64 %54, ptr %6, align 8, !tbaa !7
  store volatile i64 %54, ptr %2, align 8, !tbaa !7
  br label %55

55:                                               ; preds = %51, %49
  %56 = call ptr @rb_string_value_cstr(ptr noundef nonnull %6) #21
  %57 = load i64, ptr %6, align 8, !tbaa !7
  %58 = inttoptr i64 %57 to ptr
  %59 = load i64, ptr %58, align 8, !tbaa !11, !noalias !199
  %60 = and i64 %59, 8192
  %.not.i = icmp eq i64 %60, 0
  %61 = getelementptr inbounds nuw i8, ptr %58, i64 24
  br i1 %.not.i, label %rbimpl_rstring_getmem.exit, label %62

62:                                               ; preds = %55
  %.sroa.5.0.copyload = load ptr, ptr %61, align 8
  br label %rbimpl_rstring_getmem.exit

rbimpl_rstring_getmem.exit:                       ; preds = %55, %62
  %.sroa.5.0 = phi ptr [ %.sroa.5.0.copyload, %62 ], [ %61, %55 ]
  %.sroa.3.0.in = getelementptr inbounds nuw i8, ptr %58, i64 16
  %.sroa.3.0 = load i64, ptr %.sroa.3.0.in, align 8, !tbaa !7
  store i64 %.sroa.3.0, ptr %3, align 8, !tbaa !7
  %63 = getelementptr inbounds nuw i8, ptr %0, i64 56
  store volatile i64 %57, ptr %63, align 8, !tbaa !136
  br label %64

64:                                               ; preds = %5, %rbimpl_rstring_getmem.exit, %21, %20, %19
  %.0 = phi ptr [ %.sroa.5.0, %rbimpl_rstring_getmem.exit ], [ @.str.51, %21 ], [ @.str.50, %20 ], [ @.str.49, %19 ], [ null, %5 ]
  call void @llvm.lifetime.end.p0(i64 8, ptr nonnull %6) #21
  ret ptr %.0
}